target datalayout = "e-m:e-p270:32:32-p271:32:32-p272:64:64-i64:64-i128:128-f80:128-n8:16:32:64-S128"
target triple = "x86_64-pc-linux-gnu"

@.str = private unnamed_addr constant [34 x i8] c"../openssl/crypto/asn1/asn1_lib.c\00", align 1
@__func__.ASN1_get_object = private unnamed_addr constant [16 x i8] c"ASN1_get_object\00", align 1

; Function Attrs: nounwind uwtable
define internal i32 @asn1_get_length(ptr noundef %0, ptr noundef %1, ptr noundef %2, i64 noundef %3) #0 {
  %5 = alloca i32, align 4
  %6 = alloca ptr, align 8
  %7 = alloca ptr, align 8
  %8 = alloca ptr, align 8
  %9 = alloca i64, align 8
  %10 = alloca ptr, align 8
  %11 = alloca i64, align 8
  %12 = alloca i32, align 4
  %13 = alloca i32, align 4
  store ptr %0, ptr %6, align 8, !tbaa !3
  store ptr %1, ptr %7, align 8, !tbaa !15
  store ptr %2, ptr %8, align 8, !tbaa !13
  store i64 %3, ptr %9, align 8, !tbaa !8
  call void @llvm.lifetime.start.p0(i64 8, ptr %10) #7
  %14 = load ptr, ptr %6, align 8, !tbaa !3
  %15 = load ptr, ptr %14, align 8, !tbaa !10
  store ptr %15, ptr %10, align 8, !tbaa !10
  call void @llvm.lifetime.start.p0(i64 8, ptr %11) #7
  store i64 0, ptr %11, align 8, !tbaa !8
  call void @llvm.lifetime.start.p0(i64 4, ptr %12) #7
  %16 = load i64, ptr %9, align 8, !tbaa !8
  %17 = add nsw i64 %16, -1
  store i64 %17, ptr %9, align 8, !tbaa !8
  %18 = icmp slt i64 %16, 1
  br i1 %18, label %19, label %20

19:                                               ; preds = %4
  store i32 0, ptr %5, align 4
  store i32 1, ptr %13, align 4
  br label %97

20:                                               ; preds = %4
  %21 = load ptr, ptr %10, align 8, !tbaa !10
  %22 = load i8, ptr %21, align 1, !tbaa !12
  %23 = zext i8 %22 to i32
  %24 = icmp eq i32 %23, 128
  br i1 %24, label %25, label %29

25:                                               ; preds = %20
  %26 = load ptr, ptr %7, align 8, !tbaa !15
  store i32 1, ptr %26, align 4, !tbaa !17
  %27 = load ptr, ptr %10, align 8, !tbaa !10
  %28 = getelementptr inbounds nuw i8, ptr %27, i32 1
  store ptr %28, ptr %10, align 8, !tbaa !10
  br label %92

29:                                               ; preds = %20
  %30 = load ptr, ptr %7, align 8, !tbaa !15
  store i32 0, ptr %30, align 4, !tbaa !17
  %31 = load ptr, ptr %10, align 8, !tbaa !10
  %32 = load i8, ptr %31, align 1, !tbaa !12
  %33 = zext i8 %32 to i32
  %34 = and i32 %33, 127
  store i32 %34, ptr %12, align 4, !tbaa !17
  %35 = load ptr, ptr %10, align 8, !tbaa !10
  %36 = getelementptr inbounds nuw i8, ptr %35, i32 1
  store ptr %36, ptr %10, align 8, !tbaa !10
  %37 = load i8, ptr %35, align 1, !tbaa !12
  %38 = zext i8 %37 to i32
  %39 = and i32 %38, 128
  %40 = icmp ne i32 %39, 0
  br i1 %40, label %41, label %88

41:                                               ; preds = %29
  %42 = load i64, ptr %9, align 8, !tbaa !8
  %43 = load i32, ptr %12, align 4, !tbaa !17
  %44 = add nsw i32 %43, 1
  %45 = sext i32 %44 to i64
  %46 = icmp slt i64 %42, %45
  br i1 %46, label %47, label %48

47:                                               ; preds = %41
  store i32 0, ptr %5, align 4
  store i32 1, ptr %13, align 4
  br label %97

48:                                               ; preds = %41
  br label %49

49:                                               ; preds = %59, %48
  %50 = load i32, ptr %12, align 4, !tbaa !17
  %51 = icmp sgt i32 %50, 0
  br i1 %51, label %52, label %57

52:                                               ; preds = %49
  %53 = load ptr, ptr %10, align 8, !tbaa !10
  %54 = load i8, ptr %53, align 1, !tbaa !12
  %55 = zext i8 %54 to i32
  %56 = icmp eq i32 %55, 0
  br label %57

57:                                               ; preds = %52, %49
  %58 = phi i1 [ false, %49 ], [ %56, %52 ]
  br i1 %58, label %59, label %64

59:                                               ; preds = %57
  %60 = load ptr, ptr %10, align 8, !tbaa !10
  %61 = getelementptr inbounds nuw i8, ptr %60, i32 1
  store ptr %61, ptr %10, align 8, !tbaa !10
  %62 = load i32, ptr %12, align 4, !tbaa !17
  %63 = add nsw i32 %62, -1
  store i32 %63, ptr %12, align 4, !tbaa !17
  br label %49, !llvm.loop !21

64:                                               ; preds = %57
  %65 = load i32, ptr %12, align 4, !tbaa !17
  %66 = icmp sgt i32 %65, 8
  br i1 %66, label %67, label %68

67:                                               ; preds = %64
  store i32 0, ptr %5, align 4
  store i32 1, ptr %13, align 4
  br label %97

68:                                               ; preds = %64
  br label %69

69:                                               ; preds = %72, %68
  %70 = load i32, ptr %12, align 4, !tbaa !17
  %71 = icmp sgt i32 %70, 0
  br i1 %71, label %72, label %83

72:                                               ; preds = %69
  %73 = load i64, ptr %11, align 8, !tbaa !8
  %74 = shl i64 %73, 8
  store i64 %74, ptr %11, align 8, !tbaa !8
  %75 = load ptr, ptr %10, align 8, !tbaa !10
  %76 = getelementptr inbounds nuw i8, ptr %75, i32 1
  store ptr %76, ptr %10, align 8, !tbaa !10
  %77 = load i8, ptr %75, align 1, !tbaa !12
  %78 = zext i8 %77 to i64
  %79 = load i64, ptr %11, align 8, !tbaa !8
  %80 = or i64 %79, %78
  store i64 %80, ptr %11, align 8, !tbaa !8
  %81 = load i32, ptr %12, align 4, !tbaa !17
  %82 = add nsw i32 %81, -1
  store i32 %82, ptr %12, align 4, !tbaa !17
  br label %69, !llvm.loop !22

83:                                               ; preds = %69
  %84 = load i64, ptr %11, align 8, !tbaa !8
  %85 = icmp ugt i64 %84, 9223372036854775807
  br i1 %85, label %86, label %87

86:                                               ; preds = %83
  store i32 0, ptr %5, align 4
  store i32 1, ptr %13, align 4
  br label %97

87:                                               ; preds = %83
  br label %91

88:                                               ; preds = %29
  %89 = load i32, ptr %12, align 4, !tbaa !17
  %90 = sext i32 %89 to i64
  store i64 %90, ptr %11, align 8, !tbaa !8
  br label %91

91:                                               ; preds = %88, %87
  br label %92

92:                                               ; preds = %91, %25
  %93 = load ptr, ptr %10, align 8, !tbaa !10
  %94 = load ptr, ptr %6, align 8, !tbaa !3
  store ptr %93, ptr %94, align 8, !tbaa !10
  %95 = load i64, ptr %11, align 8, !tbaa !8
  %96 = load ptr, ptr %8, align 8, !tbaa !13
  store i64 %95, ptr %96, align 8, !tbaa !8
  store i32 1, ptr %5, align 4
  store i32 1, ptr %13, align 4
  br label %97

97:                                               ; preds = %92, %86, %67, %47, %19
  call void @llvm.lifetime.end.p0(i64 4, ptr %12) #7
  call void @llvm.lifetime.end.p0(i64 8, ptr %11) #7
  call void @llvm.lifetime.end.p0(i64 8, ptr %10) #7
  %98 = load i32, ptr %5, align 4
  ret i32 %98
}

; Function Attrs: nounwind uwtable
define i32 @ASN1_get_object(ptr noundef %0, ptr noundef %1, ptr noundef %2, ptr noundef %3, i64 noundef %4) #0 {
  %6 = alloca i32, align 4
  %7 = alloca ptr, align 8
  %8 = alloca ptr, align 8
  %9 = alloca ptr, align 8
  %10 = alloca ptr, align 8
  %11 = alloca i64, align 8
  %12 = alloca i32, align 4
  %13 = alloca i32, align 4
  %14 = alloca i64, align 8
  %15 = alloca ptr, align 8
  %16 = alloca i32, align 4
  %17 = alloca i32, align 4
  %18 = alloca i32, align 4
  %19 = alloca i64, align 8
  %20 = alloca i32, align 4
  store ptr %0, ptr %7, align 8, !tbaa !3
  store ptr %1, ptr %8, align 8, !tbaa !13
  store ptr %2, ptr %9, align 8, !tbaa !15
  store ptr %3, ptr %10, align 8, !tbaa !15
  store i64 %4, ptr %11, align 8, !tbaa !8
  call void @llvm.lifetime.start.p0(i64 4, ptr %12) #7
  call void @llvm.lifetime.start.p0(i64 4, ptr %13) #7
  call void @llvm.lifetime.start.p0(i64 8, ptr %14) #7
  call void @llvm.lifetime.start.p0(i64 8, ptr %15) #7
  %21 = load ptr, ptr %7, align 8, !tbaa !3
  %22 = load ptr, ptr %21, align 8, !tbaa !10
  store ptr %22, ptr %15, align 8, !tbaa !10
  call void @llvm.lifetime.start.p0(i64 4, ptr %16) #7
  call void @llvm.lifetime.start.p0(i64 4, ptr %17) #7
  call void @llvm.lifetime.start.p0(i64 4, ptr %18) #7
  call void @llvm.lifetime.start.p0(i64 8, ptr %19) #7
  %23 = load i64, ptr %11, align 8, !tbaa !8
  store i64 %23, ptr %19, align 8, !tbaa !8
  %24 = load i64, ptr %11, align 8, !tbaa !8
  %25 = icmp sle i64 %24, 0
  br i1 %25, label %26, label %27

26:                                               ; preds = %5
  call void @ERR_new()
  call void @ERR_set_debug(ptr noundef @.str, i32 noundef 56, ptr noundef @__func__.ASN1_get_object)
  call void (i32, i32, ptr, ...) @ERR_set_error(i32 noundef 13, i32 noundef 224, ptr noundef null)
  store i32 128, ptr %6, align 4
  store i32 1, ptr %20, align 4
  br label %143

27:                                               ; preds = %5
  %28 = load ptr, ptr %15, align 8, !tbaa !10
  %29 = load i8, ptr %28, align 1, !tbaa !12
  %30 = zext i8 %29 to i32
  %31 = and i32 %30, 32
  store i32 %31, ptr %13, align 4, !tbaa !17
  %32 = load ptr, ptr %15, align 8, !tbaa !10
  %33 = load i8, ptr %32, align 1, !tbaa !12
  %34 = zext i8 %33 to i32
  %35 = and i32 %34, 192
  store i32 %35, ptr %17, align 4, !tbaa !17
  %36 = load ptr, ptr %15, align 8, !tbaa !10
  %37 = load i8, ptr %36, align 1, !tbaa !12
  %38 = zext i8 %37 to i32
  %39 = and i32 %38, 31
  store i32 %39, ptr %12, align 4, !tbaa !17
  %40 = load i32, ptr %12, align 4, !tbaa !17
  %41 = icmp eq i32 %40, 31
  br i1 %41, label %42, label %94

42:                                               ; preds = %27
  %43 = load ptr, ptr %15, align 8, !tbaa !10
  %44 = getelementptr inbounds nuw i8, ptr %43, i32 1
  store ptr %44, ptr %15, align 8, !tbaa !10
  %45 = load i64, ptr %19, align 8, !tbaa !8
  %46 = add nsw i64 %45, -1
  store i64 %46, ptr %19, align 8, !tbaa !8
  %47 = icmp eq i64 %46, 0
  br i1 %47, label %48, label %49

48:                                               ; preds = %42
  br label %142

49:                                               ; preds = %42
  store i64 0, ptr %14, align 8, !tbaa !8
  br label %50

50:                                               ; preds = %75, %49
  %51 = load ptr, ptr %15, align 8, !tbaa !10
  %52 = load i8, ptr %51, align 1, !tbaa !12
  %53 = zext i8 %52 to i32
  %54 = and i32 %53, 128
  %55 = icmp ne i32 %54, 0
  br i1 %55, label %56, label %76

56:                                               ; preds = %50
  %57 = load i64, ptr %14, align 8, !tbaa !8
  %58 = shl i64 %57, 7
  store i64 %58, ptr %14, align 8, !tbaa !8
  %59 = load ptr, ptr %15, align 8, !tbaa !10
  %60 = getelementptr inbounds nuw i8, ptr %59, i32 1
  store ptr %60, ptr %15, align 8, !tbaa !10
  %61 = load i8, ptr %59, align 1, !tbaa !12
  %62 = zext i8 %61 to i32
  %63 = and i32 %62, 127
  %64 = sext i32 %63 to i64
  %65 = load i64, ptr %14, align 8, !tbaa !8
  %66 = or i64 %65, %64
  store i64 %66, ptr %14, align 8, !tbaa !8
  %67 = load i64, ptr %19, align 8, !tbaa !8
  %68 = add nsw i64 %67, -1
  store i64 %68, ptr %19, align 8, !tbaa !8
  %69 = icmp eq i64 %68, 0
  br i1 %69, label %70, label %71

70:                                               ; preds = %56
  br label %142

71:                                               ; preds = %56
  %72 = load i64, ptr %14, align 8, !tbaa !8
  %73 = icmp sgt i64 %72, 16777215
  br i1 %73, label %74, label %75

74:                                               ; preds = %71
  br label %142

75:                                               ; preds = %71
  br label %50, !llvm.loop !19

76:                                               ; preds = %50
  %77 = load i64, ptr %14, align 8, !tbaa !8
  %78 = shl i64 %77, 7
  store i64 %78, ptr %14, align 8, !tbaa !8
  %79 = load ptr, ptr %15, align 8, !tbaa !10
  %80 = getelementptr inbounds nuw i8, ptr %79, i32 1
  store ptr %80, ptr %15, align 8, !tbaa !10
  %81 = load i8, ptr %79, align 1, !tbaa !12
  %82 = zext i8 %81 to i32
  %83 = and i32 %82, 127
  %84 = sext i32 %83 to i64
  %85 = load i64, ptr %14, align 8, !tbaa !8
  %86 = or i64 %85, %84
  store i64 %86, ptr %14, align 8, !tbaa !8
  %87 = load i64, ptr %14, align 8, !tbaa !8
  %88 = trunc i64 %87 to i32
  store i32 %88, ptr %16, align 4, !tbaa !17
  %89 = load i64, ptr %19, align 8, !tbaa !8
  %90 = add nsw i64 %89, -1
  store i64 %90, ptr %19, align 8, !tbaa !8
  %91 = icmp eq i64 %90, 0
  br i1 %91, label %92, label %93

92:                                               ; preds = %76
  br label %142

93:                                               ; preds = %76
  br label %103

94:                                               ; preds = %27
  %95 = load i32, ptr %12, align 4, !tbaa !17
  store i32 %95, ptr %16, align 4, !tbaa !17
  %96 = load ptr, ptr %15, align 8, !tbaa !10
  %97 = getelementptr inbounds nuw i8, ptr %96, i32 1
  store ptr %97, ptr %15, align 8, !tbaa !10
  %98 = load i64, ptr %19, align 8, !tbaa !8
  %99 = add nsw i64 %98, -1
  store i64 %99, ptr %19, align 8, !tbaa !8
  %100 = icmp eq i64 %99, 0
  br i1 %100, label %101, label %102

101:                                              ; preds = %94
  br label %142

102:                                              ; preds = %94
  br label %103

103:                                              ; preds = %102, %93
  %104 = load i32, ptr %16, align 4, !tbaa !17
  %105 = load ptr, ptr %9, align 8, !tbaa !15
  store i32 %104, ptr %105, align 4, !tbaa !17
  %106 = load i32, ptr %17, align 4, !tbaa !17
  %107 = load ptr, ptr %10, align 8, !tbaa !15
  store i32 %106, ptr %107, align 4, !tbaa !17
  %108 = load ptr, ptr %8, align 8, !tbaa !13
  %109 = load i64, ptr %19, align 8, !tbaa !8
  %110 = call i32 @asn1_get_length(ptr noundef %15, ptr noundef %18, ptr noundef %108, i64 noundef %109)
  %111 = icmp ne i32 %110, 0
  br i1 %111, label %113, label %112

112:                                              ; preds = %103
  br label %142

113:                                              ; preds = %103
  %114 = load i32, ptr %18, align 4, !tbaa !17
  %115 = icmp ne i32 %114, 0
  br i1 %115, label %116, label %121

116:                                              ; preds = %113
  %117 = load i32, ptr %13, align 4, !tbaa !17
  %118 = and i32 %117, 32
  %119 = icmp ne i32 %118, 0
  br i1 %119, label %121, label %120

120:                                              ; preds = %116
  br label %142

121:                                              ; preds = %116, %113
  %122 = load ptr, ptr %8, align 8, !tbaa !13
  %123 = load i64, ptr %122, align 8, !tbaa !8
  %124 = load i64, ptr %11, align 8, !tbaa !8
  %125 = load ptr, ptr %15, align 8, !tbaa !10
  %126 = load ptr, ptr %7, align 8, !tbaa !3
  %127 = load ptr, ptr %126, align 8, !tbaa !10
  %128 = ptrtoint ptr %125 to i64
  %129 = ptrtoint ptr %127 to i64
  %130 = sub i64 %128, %129
  %131 = sub nsw i64 %124, %130
  %132 = icmp sgt i64 %123, %131
  br i1 %132, label %133, label %136

133:                                              ; preds = %121
  call void @ERR_new()
  call void @ERR_set_debug(ptr noundef @.str, i32 noundef 95, ptr noundef @__func__.ASN1_get_object)
  call void (i32, i32, ptr, ...) @ERR_set_error(i32 noundef 13, i32 noundef 155, ptr noundef null)
  %134 = load i32, ptr %13, align 4, !tbaa !17
  %135 = or i32 %134, 128
  store i32 %135, ptr %13, align 4, !tbaa !17
  br label %136

136:                                              ; preds = %133, %121
  %137 = load ptr, ptr %15, align 8, !tbaa !10
  %138 = load ptr, ptr %7, align 8, !tbaa !3
  store ptr %137, ptr %138, align 8, !tbaa !10
  %139 = load i32, ptr %13, align 4, !tbaa !17
  %140 = load i32, ptr %18, align 4, !tbaa !17
  %141 = or i32 %139, %140
  store i32 %141, ptr %6, align 4
  store i32 1, ptr %20, align 4
  br label %143

142:                                              ; preds = %120, %112, %101, %92, %74, %70, %48
  call void @ERR_new()
  call void @ERR_set_debug(ptr noundef @.str, i32 noundef 105, ptr noundef @__func__.ASN1_get_object)
  call void (i32, i32, ptr, ...) @ERR_set_error(i32 noundef 13, i32 noundef 123, ptr noundef null)
  store i32 128, ptr %6, align 4
  store i32 1, ptr %20, align 4
  br label %143

143:                                              ; preds = %142, %136, %26
  call void @llvm.lifetime.end.p0(i64 8, ptr %19) #7
  call void @llvm.lifetime.end.p0(i64 4, ptr %18) #7
  call void @llvm.lifetime.end.p0(i64 4, ptr %17) #7
  call void @llvm.lifetime.end.p0(i64 4, ptr %16) #7
  call void @llvm.lifetime.end.p0(i64 8, ptr %15) #7
  call void @llvm.lifetime.end.p0(i64 8, ptr %14) #7
  call void @llvm.lifetime.end.p0(i64 4, ptr %13) #7
  call void @llvm.lifetime.end.p0(i64 4, ptr %12) #7
  %144 = load i32, ptr %6, align 4
  ret i32 %144
}